; Function Attrs: null_pointer_is_valid sspstrong uwtable
define internal fastcc void @query_sm(ptr noundef %0, ptr noundef %1) unnamed_addr #0 {
  %3 = load i32, ptr @hf_smpp_message_id, align 4
  %4 = tail call i32 @tvb_strsize(ptr noundef %1, i32 noundef 16)
  %5 = icmp ugt i32 %4, 1
  br i1 %5, label %6, label %smpp_handle_string.exit

6:                                                ; preds = %2
  %7 = tail call ptr @proto_tree_add_item(ptr noundef %0, i32 noundef %3, ptr noundef %1, i32 noundef 16, i32 noundef %4, i32 noundef 0)
  br label %smpp_handle_string.exit

smpp_handle_string.exit:                          ; preds = %2, %6
  %8 = add i32 %4, 16
  %9 = load i32, ptr @hf_smpp_source_addr_ton, align 4
  %10 = tail call ptr @proto_tree_add_item(ptr noundef %0, i32 noundef %9, ptr noundef %1, i32 noundef %8, i32 noundef 1, i32 noundef 0)
  %11 = add i32 %4, 17
  %12 = load i32, ptr @hf_smpp_source_addr_npi, align 4
  %13 = tail call ptr @proto_tree_add_item(ptr noundef %0, i32 noundef %12, ptr noundef %1, i32 noundef %11, i32 noundef 1, i32 noundef 0)
  %14 = add i32 %4, 18
  %15 = load i32, ptr @hf_smpp_source_addr, align 4
  %16 = tail call i32 @tvb_strsize(ptr noundef %1, i32 noundef %14)
  %17 = icmp ugt i32 %16, 1
  br i1 %17, label %18, label %smpp_handle_string.exit8

18:                                               ; preds = %smpp_handle_string.exit
  %19 = tail call ptr @proto_tree_add_item(ptr noundef %0, i32 noundef %15, ptr noundef %1, i32 noundef %14, i32 noundef %16, i32 noundef 0)
  br label %smpp_handle_string.exit8

smpp_handle_string.exit8:                         ; preds = %smpp_handle_string.exit, %18
  ret void
}